; Function Attrs: nounwind uwtable
define internal void @tablet_seat_handle_tool_added(ptr noundef %0, ptr readnone captures(none) %1, ptr noundef %2) #0 {
  %4 = tail call noalias dereferenceable_or_null(120) ptr @SDL_calloc_REAL(i64 noundef 1, i64 noundef 120) #14
  %.not = icmp eq ptr %4, null
  br i1 %.not, label %15, label %5

5:                                                ; preds = %3
  %6 = getelementptr inbounds nuw i8, ptr %4, i64 32
  store ptr %2, ptr %6, align 8
  %7 = getelementptr inbounds nuw i8, ptr %4, i64 8
  store float -1.000000e+00, ptr %7, align 4
  %8 = getelementptr inbounds nuw i8, ptr %4, i64 16
  store i32 -1, ptr %8, align 4
  %9 = getelementptr inbounds nuw i8, ptr %4, i64 84
  tail call void @llvm.memset.p0.i64(ptr noundef nonnull align 4 dereferenceable(16) %9, i8 -1, i64 16, i1 false)
  %10 = load ptr, ptr @WAYLAND_wl_list_insert, align 8
  %11 = getelementptr inbounds nuw i8, ptr %0, i64 528
  %12 = getelementptr inbounds nuw i8, ptr %4, i64 104
  tail call void %10(ptr noundef nonnull %11, ptr noundef nonnull %12) #12
  %13 = load ptr, ptr @WAYLAND_wl_proxy_add_listener, align 8
  %14 = tail call i32 %13(ptr noundef %2, ptr noundef nonnull @tablet_tool_listener, ptr noundef nonnull %4) #12
  br label %15

15:                                               ; preds = %5, %3
  ret void
}